; Function Attrs: nofree nounwind memory(readwrite, argmem: none) uwtable
define noalias noundef ptr @Mem_StepStart(i32 noundef %0) local_unnamed_addr #9 {
  %calloc = tail call dereferenceable_or_null(48) ptr @calloc(i64 1, i64 48)
  store i32 %0, ptr %calloc, align 8, !tbaa !39
  %2 = sext i32 %0 to i64
  %3 = shl nsw i64 %2, 3
  %4 = tail call noalias ptr @malloc(i64 noundef %3) #14
  %5 = getelementptr inbounds nuw i8, ptr %calloc, i64 8
  store ptr %4, ptr %5, align 8, !tbaa !42
  %6 = icmp sgt i32 %0, 0
  br i1 %6, label %Mem_FixedStart.exit.preheader, label %._crit_edge

Mem_FixedStart.exit.preheader:                    ; preds = %1
  %wide.trip.count = zext nneg i32 %0 to i64
  br label %Mem_FixedStart.exit

Mem_FixedStart.exit:                              ; preds = %Mem_FixedStart.exit.preheader, %Mem_FixedStart.exit
  %indvars.iv = phi i64 [ 0, %Mem_FixedStart.exit.preheader ], [ %indvars.iv.next, %Mem_FixedStart.exit ]
  %7 = trunc nuw nsw i64 %indvars.iv to i32
  %8 = shl i32 8, %7
  %calloc.i = tail call dereferenceable_or_null(56) ptr @calloc(i64 1, i64 56)
  store i32 %8, ptr %calloc.i, align 8, !tbaa !3
  %9 = icmp slt i32 %8, 64
  %10 = lshr i32 8192, %7
  %11 = getelementptr inbounds nuw i8, ptr %calloc.i, i64 24
  %12 = tail call i32 @llvm.umax.i32(i32 %10, i32 8)
  %13 = select i1 %9, i32 1024, i32 %12
  store i32 %13, ptr %11, align 8
  %14 = getelementptr inbounds nuw i8, ptr %calloc.i, i64 28
  store i32 64, ptr %14, align 4, !tbaa !11
  %15 = getelementptr inbounds nuw i8, ptr %calloc.i, i64 32
  store i32 0, ptr %15, align 8, !tbaa !12
  %16 = tail call noalias dereferenceable_or_null(512) ptr @malloc(i64 noundef 512) #14
  %17 = getelementptr inbounds nuw i8, ptr %calloc.i, i64 40
  store ptr %16, ptr %17, align 8, !tbaa !13
  %18 = getelementptr inbounds nuw i8, ptr %calloc.i, i64 48
  store i32 0, ptr %18, align 8, !tbaa !14
  %19 = getelementptr inbounds nuw i8, ptr %calloc.i, i64 52
  store i32 0, ptr %19, align 4, !tbaa !15
  %20 = getelementptr inbounds nuw ptr, ptr %4, i64 %indvars.iv
  store ptr %calloc.i, ptr %20, align 8, !tbaa !43
  %indvars.iv.next = add nuw nsw i64 %indvars.iv, 1
  %exitcond.not = icmp eq i64 %indvars.iv.next, %wide.trip.count
  br i1 %exitcond.not, label %._crit_edge.loopexit, label %Mem_FixedStart.exit, !llvm.loop !45

._crit_edge.loopexit:                             ; preds = %Mem_FixedStart.exit
  %.pre = load ptr, ptr %4, align 8, !tbaa !43
  br label %._crit_edge

._crit_edge:                                      ; preds = %._crit_edge.loopexit, %1
  %21 = phi ptr [ %.pre, %._crit_edge.loopexit ], [ undef, %1 ]
  %22 = shl i32 4, %0
  %23 = getelementptr inbounds nuw i8, ptr %calloc, i64 16
  store i32 %22, ptr %23, align 8, !tbaa !46
  %24 = or disjoint i32 %22, 1
  %25 = sext i32 %24 to i64
  %26 = shl nsw i64 %25, 3
  %27 = tail call noalias ptr @malloc(i64 noundef %26) #14
  %28 = getelementptr inbounds nuw i8, ptr %calloc, i64 24
  store ptr %27, ptr %28, align 8, !tbaa !47
  store ptr null, ptr %27, align 8, !tbaa !43
  br label %29

.preheader:                                       ; preds = %29
  br i1 %6, label %.lr.ph42.preheader, label %._crit_edge43

.lr.ph42.preheader:                               ; preds = %.preheader
  %wide.trip.count56 = zext nneg i32 %0 to i64
  br label %.lr.ph42

29:                                               ; preds = %._crit_edge, %29
  %indvars.iv45 = phi i64 [ 1, %._crit_edge ], [ %indvars.iv.next46, %29 ]
  %30 = getelementptr inbounds nuw ptr, ptr %27, i64 %indvars.iv45
  store ptr %21, ptr %30, align 8, !tbaa !43
  %indvars.iv.next46 = add nuw nsw i64 %indvars.iv45, 1
  %exitcond48.not = icmp eq i64 %indvars.iv.next46, 5
  br i1 %exitcond48.not, label %.preheader, label %29, !llvm.loop !48

.lr.ph42:                                         ; preds = %.lr.ph42.preheader, %._crit_edge40
  %indvars.iv53 = phi i64 [ 0, %.lr.ph42.preheader ], [ %indvars.iv.next54, %._crit_edge40 ]
  %31 = trunc nuw nsw i64 %indvars.iv53 to i32
  %32 = shl i32 4, %31
  %33 = shl i32 8, %31
  %.not37.not = icmp slt i32 %32, %33
  br i1 %.not37.not, label %.lr.ph, label %._crit_edge40

.lr.ph:                                           ; preds = %.lr.ph42
  %34 = getelementptr inbounds nuw ptr, ptr %4, i64 %indvars.iv53
  %35 = load ptr, ptr %34, align 8, !tbaa !43
  %36 = or disjoint i32 %32, 1
  %37 = sext i32 %36 to i64
  %38 = or disjoint i32 %33, 1
  br label %39

39:                                               ; preds = %.lr.ph, %39
  %indvars.iv49 = phi i64 [ %37, %.lr.ph ], [ %indvars.iv.next50, %39 ]
  %40 = getelementptr inbounds ptr, ptr %27, i64 %indvars.iv49
  store ptr %35, ptr %40, align 8, !tbaa !43
  %indvars.iv.next50 = add nsw i64 %indvars.iv49, 1
  %lftr.wideiv = trunc i64 %indvars.iv.next50 to i32
  %exitcond52.not = icmp eq i32 %38, %lftr.wideiv
  br i1 %exitcond52.not, label %._crit_edge40, label %39, !llvm.loop !49

._crit_edge40:                                    ; preds = %39, %.lr.ph42
  %indvars.iv.next54 = add nuw nsw i64 %indvars.iv53, 1
  %exitcond57.not = icmp eq i64 %indvars.iv.next54, %wide.trip.count56
  br i1 %exitcond57.not, label %._crit_edge43, label %.lr.ph42, !llvm.loop !50

._crit_edge43:                                    ; preds = %._crit_edge40, %.preheader
  ret ptr %calloc
}